target datalayout = "e-m:e-p270:32:32-p271:32:32-p272:64:64-i64:64-i128:128-f80:128-n8:16:32:64-S128"
target triple = "x86_64-pc-linux-gnu"

%"class.gmx::ImdSession::Impl" = type { i8, ptr, i32, i32, ptr, ptr, i32, ptr, ptr, ptr, ptr, ptr, i32, i32, i32, i32, ptr, ptr, i32, i8, i8, i8, i8, i8, ptr, i32, ptr, ptr, i32, ptr, ptr, ptr, ptr, ptr, %struct.t_block, i32, ptr, ptr, ptr, ptr, ptr, ptr }
%struct.t_block = type { i32, ptr, i32 }

; Function Attrs: mustprogress nounwind uwtable
define void @_ZNK3gmx10ImdSession4Impl14copyToMDForcesEv(ptr noundef nonnull align 8 dereferenceable(296) %0) #3 align 2 {
  %2 = alloca ptr, align 8
  %3 = alloca i32, align 4
  %4 = alloca float, align 4
  store ptr %0, ptr %2, align 8, !tbaa !266
  %5 = load ptr, ptr %2, align 8
  call void @llvm.lifetime.start.p0(i64 4, ptr %3) #17
  call void @llvm.lifetime.start.p0(i64 4, ptr %4) #17
  store float 0x4044EB8520000000, ptr %4, align 4, !tbaa !329
  store i32 0, ptr %3, align 4, !tbaa !70
  br label %6

6:                                                ; preds = %70, %1
  %7 = load i32, ptr %3, align 4, !tbaa !70
  %8 = getelementptr inbounds nuw %"class.gmx::ImdSession::Impl", ptr %5, i32 0, i32 28
  %9 = load i32, ptr %8, align 8, !tbaa !328
  %10 = icmp slt i32 %7, %9
  br i1 %10, label %11, label %73

11:                                               ; preds = %6
  %12 = getelementptr inbounds nuw %"class.gmx::ImdSession::Impl", ptr %5, i32 0, i32 26
  %13 = load ptr, ptr %12, align 8, !tbaa !326
  %14 = load i32, ptr %3, align 4, !tbaa !70
  %15 = sext i32 %14 to i64
  %16 = getelementptr inbounds i32, ptr %13, i64 %15
  %17 = load i32, ptr %16, align 4, !tbaa !70
  %18 = getelementptr inbounds nuw %"class.gmx::ImdSession::Impl", ptr %5, i32 0, i32 29
  %19 = load ptr, ptr %18, align 8, !tbaa !330
  %20 = load i32, ptr %3, align 4, !tbaa !70
  %21 = sext i32 %20 to i64
  %22 = getelementptr inbounds i32, ptr %19, i64 %21
  store i32 %17, ptr %22, align 4, !tbaa !70
  %23 = getelementptr inbounds nuw %"class.gmx::ImdSession::Impl", ptr %5, i32 0, i32 27
  %24 = load ptr, ptr %23, align 8, !tbaa !327
  %25 = load i32, ptr %3, align 4, !tbaa !70
  %26 = mul nsw i32 3, %25
  %27 = sext i32 %26 to i64
  %28 = getelementptr inbounds float, ptr %24, i64 %27
  %29 = load float, ptr %28, align 4, !tbaa !329
  %30 = load float, ptr %4, align 4, !tbaa !329
  %31 = fmul float %29, %30
  %32 = getelementptr inbounds nuw %"class.gmx::ImdSession::Impl", ptr %5, i32 0, i32 30
  %33 = load ptr, ptr %32, align 8, !tbaa !331
  %34 = load i32, ptr %3, align 4, !tbaa !70
  %35 = sext i32 %34 to i64
  %36 = getelementptr inbounds [3 x float], ptr %33, i64 %35
  %37 = getelementptr inbounds [3 x float], ptr %36, i64 0, i64 0
  store float %31, ptr %37, align 4, !tbaa !329
  %38 = getelementptr inbounds nuw %"class.gmx::ImdSession::Impl", ptr %5, i32 0, i32 27
  %39 = load ptr, ptr %38, align 8, !tbaa !327
  %40 = load i32, ptr %3, align 4, !tbaa !70
  %41 = mul nsw i32 3, %40
  %42 = add nsw i32 %41, 1
  %43 = sext i32 %42 to i64
  %44 = getelementptr inbounds float, ptr %39, i64 %43
  %45 = load float, ptr %44, align 4, !tbaa !329
  %46 = load float, ptr %4, align 4, !tbaa !329
  %47 = fmul float %45, %46
  %48 = getelementptr inbounds nuw %"class.gmx::ImdSession::Impl", ptr %5, i32 0, i32 30
  %49 = load ptr, ptr %48, align 8, !tbaa !331
  %50 = load i32, ptr %3, align 4, !tbaa !70
  %51 = sext i32 %50 to i64
  %52 = getelementptr inbounds [3 x float], ptr %49, i64 %51
  %53 = getelementptr inbounds [3 x float], ptr %52, i64 0, i64 1
  store float %47, ptr %53, align 4, !tbaa !329
  %54 = getelementptr inbounds nuw %"class.gmx::ImdSession::Impl", ptr %5, i32 0, i32 27
  %55 = load ptr, ptr %54, align 8, !tbaa !327
  %56 = load i32, ptr %3, align 4, !tbaa !70
  %57 = mul nsw i32 3, %56
  %58 = add nsw i32 %57, 2
  %59 = sext i32 %58 to i64
  %60 = getelementptr inbounds float, ptr %55, i64 %59
  %61 = load float, ptr %60, align 4, !tbaa !329
  %62 = load float, ptr %4, align 4, !tbaa !329
  %63 = fmul float %61, %62
  %64 = getelementptr inbounds nuw %"class.gmx::ImdSession::Impl", ptr %5, i32 0, i32 30
  %65 = load ptr, ptr %64, align 8, !tbaa !331
  %66 = load i32, ptr %3, align 4, !tbaa !70
  %67 = sext i32 %66 to i64
  %68 = getelementptr inbounds [3 x float], ptr %65, i64 %67
  %69 = getelementptr inbounds [3 x float], ptr %68, i64 0, i64 2
  store float %63, ptr %69, align 4, !tbaa !329
  br label %70

70:                                               ; preds = %11
  %71 = load i32, ptr %3, align 4, !tbaa !70
  %72 = add nsw i32 %71, 1
  store i32 %72, ptr %3, align 4, !tbaa !70
  br label %6, !llvm.loop !332

73:                                               ; preds = %6
  call void @llvm.lifetime.end.p0(i64 4, ptr %4) #17
  call void @llvm.lifetime.end.p0(i64 4, ptr %3) #17
  ret void
}