; Function Attrs: mustprogress nofree norecurse nosync nounwind memory(readwrite, inaccessiblemem: none) uwtable
define void @_ZNK3gmx10ImdSession4Impl14copyToMDForcesEv(ptr noundef nonnull readonly align 8 captures(none) dereferenceable(296) %0) local_unnamed_addr #16 align 2 {
  %2 = getelementptr inbounds nuw i8, ptr %0, i64 168
  %3 = load i32, ptr %2, align 8, !tbaa !171
  %4 = icmp sgt i32 %3, 0
  br i1 %4, label %.lr.ph, label %._crit_edge

.lr.ph:                                           ; preds = %1
  %5 = getelementptr inbounds nuw i8, ptr %0, i64 152
  %6 = load ptr, ptr %5, align 8, !tbaa !170
  %7 = getelementptr inbounds nuw i8, ptr %0, i64 176
  %8 = load ptr, ptr %7, align 8, !tbaa !172
  %9 = getelementptr inbounds nuw i8, ptr %0, i64 160
  %10 = load ptr, ptr %9, align 8, !tbaa !173
  %11 = getelementptr inbounds nuw i8, ptr %0, i64 184
  %12 = load ptr, ptr %11, align 8, !tbaa !174
  br label %13

13:                                               ; preds = %.lr.ph, %13
  %indvars.iv = phi i64 [ 0, %.lr.ph ], [ %indvars.iv.next, %13 ]
  %14 = getelementptr inbounds nuw i32, ptr %6, i64 %indvars.iv
  %15 = load i32, ptr %14, align 4, !tbaa !161
  %16 = getelementptr inbounds nuw i32, ptr %8, i64 %indvars.iv
  store i32 %15, ptr %16, align 4, !tbaa !161
  %.idx = mul nuw nsw i64 %indvars.iv, 12
  %17 = getelementptr inbounds nuw i8, ptr %10, i64 %.idx
  %18 = load float, ptr %17, align 4, !tbaa !175
  %19 = fmul float %18, 0x4044EB8520000000
  %20 = getelementptr inbounds nuw [3 x float], ptr %12, i64 %indvars.iv
  store float %19, ptr %20, align 4, !tbaa !175
  %21 = getelementptr inbounds nuw i8, ptr %17, i64 4
  %22 = load float, ptr %21, align 4, !tbaa !175
  %23 = fmul float %22, 0x4044EB8520000000
  %24 = getelementptr inbounds nuw [3 x float], ptr %12, i64 %indvars.iv, i64 1
  store float %23, ptr %24, align 4, !tbaa !175
  %25 = getelementptr inbounds nuw i8, ptr %17, i64 8
  %26 = load float, ptr %25, align 4, !tbaa !175
  %27 = fmul float %26, 0x4044EB8520000000
  %28 = getelementptr inbounds nuw [3 x float], ptr %12, i64 %indvars.iv, i64 2
  store float %27, ptr %28, align 4, !tbaa !175
  %indvars.iv.next = add nuw nsw i64 %indvars.iv, 1
  %29 = load i32, ptr %2, align 8, !tbaa !171
  %30 = sext i32 %29 to i64
  %31 = icmp slt i64 %indvars.iv.next, %30
  br i1 %31, label %13, label %._crit_edge, !llvm.loop !176

._crit_edge:                                      ; preds = %13, %1
  ret void
}